; Function Attrs: mustprogress uwtable
define hidden noundef zeroext i1 @_ZNK4cvc58internal3smt11SetDefaults31incompatibleWithSeparationLogicERNS0_7OptionsERSo(ptr noundef nonnull align 8 dereferenceable(17) %this, ptr noundef nonnull align 8 dereferenceable(392) %opts, ptr nocapture nonnull readnone align 8 %reason) local_unnamed_addr #3 align 2 personality ptr @__gxx_personality_v0 {
entry:
  %ref.tmp = alloca %"class.std::__cxx11::basic_string", align 8
  %ref.tmp2 = alloca %"class.std::allocator", align 1
  %ref.tmp3 = alloca %"class.std::__cxx11::basic_string", align 8
  %ref.tmp4 = alloca %"class.std::allocator", align 1
  %ref.tmp7 = alloca %"class.std::__cxx11::basic_string", align 8
  %ref.tmp8 = alloca %"class.std::allocator", align 1
  %call = tail call noundef nonnull align 8 dereferenceable(185) ptr @_ZN4cvc58internal7Options8writeSmtEv(ptr noundef nonnull align 8 dereferenceable(392) %opts)
  %simplificationBoolConstProp = getelementptr inbounds i8, ptr %call, i64 137
  %0 = load i8, ptr %simplificationBoolConstProp, align 1
  %1 = and i8 %0, 1
  %tobool.not = icmp eq i8 %1, 0
  br i1 %tobool.not, label %if.end, label %if.then

if.then:                                          ; preds = %entry
  call void @_ZNSaIcEC1Ev(ptr noundef nonnull align 1 dereferenceable(1) %ref.tmp2) #13
  %call.i5 = invoke noundef ptr @_ZNSt7__cxx1112basic_stringIcSt11char_traitsIcESaIcEE13_M_local_dataEv(ptr noundef nonnull align 8 dereferenceable(32) %ref.tmp)
          to label %call.i.noexc unwind label %lpad

call.i.noexc:                                     ; preds = %if.then
  invoke void @_ZNSt7__cxx1112basic_stringIcSt11char_traitsIcESaIcEE12_Alloc_hiderC1EPcRKS3_(ptr noundef nonnull align 8 dereferenceable(8) %ref.tmp, ptr noundef %call.i5, ptr noundef nonnull align 1 dereferenceable(1) %ref.tmp2)
          to label %.noexc unwind label %lpad

.noexc:                                           ; preds = %call.i.noexc
  invoke void @_ZNSt7__cxx1112basic_stringIcSt11char_traitsIcESaIcEE12_M_constructIPKcEEvT_S8_St20forward_iterator_tag(ptr noundef nonnull align 8 dereferenceable(32) %ref.tmp, ptr noundef nonnull @.str.153, ptr noundef nonnull getelementptr inbounds ([28 x i8], ptr @.str.153, i64 0, i64 27))
          to label %invoke.cont unwind label %lpad.i

lpad.i:                                           ; preds = %.noexc
  %2 = landingpad { ptr, i32 }
          cleanup
  call void @_ZNSaIcED2Ev(ptr noundef nonnull align 1 dereferenceable(1) %ref.tmp) #13
  br label %ehcleanup16

invoke.cont:                                      ; preds = %.noexc
  call void @_ZNSaIcEC1Ev(ptr noundef nonnull align 1 dereferenceable(1) %ref.tmp4) #13
  %call.i10 = invoke noundef ptr @_ZNSt7__cxx1112basic_stringIcSt11char_traitsIcESaIcEE13_M_local_dataEv(ptr noundef nonnull align 8 dereferenceable(32) %ref.tmp3)
          to label %call.i.noexc9 unwind label %lpad5

call.i.noexc9:                                    ; preds = %invoke.cont
  invoke void @_ZNSt7__cxx1112basic_stringIcSt11char_traitsIcESaIcEE12_Alloc_hiderC1EPcRKS3_(ptr noundef nonnull align 8 dereferenceable(8) %ref.tmp3, ptr noundef %call.i10, ptr noundef nonnull align 1 dereferenceable(1) %ref.tmp4)
          to label %.noexc11 unwind label %lpad5

.noexc11:                                         ; preds = %call.i.noexc9
  invoke void @_ZNSt7__cxx1112basic_stringIcSt11char_traitsIcESaIcEE12_M_constructIPKcEEvT_S8_St20forward_iterator_tag(ptr noundef nonnull align 8 dereferenceable(32) %ref.tmp3, ptr noundef nonnull @.str.31, ptr noundef nonnull getelementptr inbounds ([6 x i8], ptr @.str.31, i64 0, i64 5))
          to label %invoke.cont6 unwind label %lpad.i8

lpad.i8:                                          ; preds = %.noexc11
  %3 = landingpad { ptr, i32 }
          cleanup
  call void @_ZNSaIcED2Ev(ptr noundef nonnull align 1 dereferenceable(1) %ref.tmp3) #13
  br label %ehcleanup14

invoke.cont6:                                     ; preds = %.noexc11
  call void @_ZNSaIcEC1Ev(ptr noundef nonnull align 1 dereferenceable(1) %ref.tmp8) #13
  %call.i18 = invoke noundef ptr @_ZNSt7__cxx1112basic_stringIcSt11char_traitsIcESaIcEE13_M_local_dataEv(ptr noundef nonnull align 8 dereferenceable(32) %ref.tmp7)
          to label %call.i.noexc17 unwind label %lpad9

call.i.noexc17:                                   ; preds = %invoke.cont6
  invoke void @_ZNSt7__cxx1112basic_stringIcSt11char_traitsIcESaIcEE12_Alloc_hiderC1EPcRKS3_(ptr noundef nonnull align 8 dereferenceable(8) %ref.tmp7, ptr noundef %call.i18, ptr noundef nonnull align 1 dereferenceable(1) %ref.tmp8)
          to label %.noexc19 unwind label %lpad9

.noexc19:                                         ; preds = %call.i.noexc17
  invoke void @_ZNSt7__cxx1112basic_stringIcSt11char_traitsIcESaIcEE12_M_constructIPKcEEvT_S8_St20forward_iterator_tag(ptr noundef nonnull align 8 dereferenceable(32) %ref.tmp7, ptr noundef nonnull @.str.131, ptr noundef nonnull getelementptr inbounds ([17 x i8], ptr @.str.131, i64 0, i64 16))
          to label %invoke.cont10 unwind label %lpad.i16

lpad.i16:                                         ; preds = %.noexc19
  %4 = landingpad { ptr, i32 }
          cleanup
  call void @_ZNSaIcED2Ev(ptr noundef nonnull align 1 dereferenceable(1) %ref.tmp7) #13
  br label %ehcleanup

invoke.cont10:                                    ; preds = %.noexc19
  invoke void @_ZNK4cvc58internal3smt11SetDefaults18notifyModifyOptionERKNSt7__cxx1112basic_stringIcSt11char_traitsIcESaIcEEESA_SA_(ptr noundef nonnull align 8 dereferenceable(17) %this, ptr noundef nonnull align 8 dereferenceable(32) %ref.tmp, ptr noundef nonnull align 8 dereferenceable(32) %ref.tmp3, ptr noundef nonnull align 8 dereferenceable(32) %ref.tmp7)
          to label %invoke.cont12 unwind label %lpad11

invoke.cont12:                                    ; preds = %invoke.cont10
  call void @_ZNSt7__cxx1112basic_stringIcSt11char_traitsIcESaIcEED1Ev(ptr noundef nonnull align 8 dereferenceable(32) %ref.tmp7) #13
  call void @_ZNSaIcED1Ev(ptr noundef nonnull align 1 dereferenceable(1) %ref.tmp8) #13
  call void @_ZNSt7__cxx1112basic_stringIcSt11char_traitsIcESaIcEED1Ev(ptr noundef nonnull align 8 dereferenceable(32) %ref.tmp3) #13
  call void @_ZNSaIcED1Ev(ptr noundef nonnull align 1 dereferenceable(1) %ref.tmp4) #13
  call void @_ZNSt7__cxx1112basic_stringIcSt11char_traitsIcESaIcEED1Ev(ptr noundef nonnull align 8 dereferenceable(32) %ref.tmp) #13
  call void @_ZNSaIcED1Ev(ptr noundef nonnull align 1 dereferenceable(1) %ref.tmp2) #13
  %call17 = call noundef nonnull align 8 dereferenceable(185) ptr @_ZN4cvc58internal7Options8writeSmtEv(ptr noundef nonnull align 8 dereferenceable(392) %opts)
  %simplificationBoolConstProp18 = getelementptr inbounds i8, ptr %call17, i64 137
  store i8 0, ptr %simplificationBoolConstProp18, align 1
  br label %if.end

lpad:                                             ; preds = %call.i.noexc, %if.then
  %5 = landingpad { ptr, i32 }
          cleanup
  br label %ehcleanup16

lpad5:                                            ; preds = %call.i.noexc9, %invoke.cont
  %6 = landingpad { ptr, i32 }
          cleanup
  br label %ehcleanup14

lpad9:                                            ; preds = %call.i.noexc17, %invoke.cont6
  %7 = landingpad { ptr, i32 }
          cleanup
  br label %ehcleanup

lpad11:                                           ; preds = %invoke.cont10
  %8 = landingpad { ptr, i32 }
          cleanup
  call void @_ZNSt7__cxx1112basic_stringIcSt11char_traitsIcESaIcEED1Ev(ptr noundef nonnull align 8 dereferenceable(32) %ref.tmp7) #13
  br label %ehcleanup

ehcleanup:                                        ; preds = %lpad9, %lpad.i16, %lpad11
  %.pn = phi { ptr, i32 } [ %8, %lpad11 ], [ %7, %lpad9 ], [ %4, %lpad.i16 ]
  call void @_ZNSaIcED1Ev(ptr noundef nonnull align 1 dereferenceable(1) %ref.tmp8) #13
  call void @_ZNSt7__cxx1112basic_stringIcSt11char_traitsIcESaIcEED1Ev(ptr noundef nonnull align 8 dereferenceable(32) %ref.tmp3) #13
  br label %ehcleanup14

ehcleanup14:                                      ; preds = %lpad5, %lpad.i8, %ehcleanup
  %.pn.pn = phi { ptr, i32 } [ %.pn, %ehcleanup ], [ %6, %lpad5 ], [ %3, %lpad.i8 ]
  call void @_ZNSaIcED1Ev(ptr noundef nonnull align 1 dereferenceable(1) %ref.tmp4) #13
  call void @_ZNSt7__cxx1112basic_stringIcSt11char_traitsIcESaIcEED1Ev(ptr noundef nonnull align 8 dereferenceable(32) %ref.tmp) #13
  br label %ehcleanup16

ehcleanup16:                                      ; preds = %lpad, %lpad.i, %ehcleanup14
  %.pn.pn.pn = phi { ptr, i32 } [ %.pn.pn, %ehcleanup14 ], [ %5, %lpad ], [ %2, %lpad.i ]
  call void @_ZNSaIcED1Ev(ptr noundef nonnull align 1 dereferenceable(1) %ref.tmp2) #13
  resume { ptr, i32 } %.pn.pn.pn

if.end:                                           ; preds = %invoke.cont12, %entry
  ret i1 false
}